; Function Attrs: nounwind uwtable
define dso_local void @uv_os_free_passwd(ptr noundef captures(address_is_null) %0) local_unnamed_addr #0 {
  %2 = icmp eq ptr %0, null
  br i1 %2, label %9, label %3

3:                                                ; preds = %1
  %4 = load ptr, ptr %0, align 8
  %5 = tail call ptr @__errno_location() #27
  %6 = load i32, ptr %5, align 4
  %7 = load ptr, ptr @uv__allocator.3, align 8
  tail call void %7(ptr noundef %4) #26
  store i32 %6, ptr %5, align 4
  store ptr null, ptr %0, align 8
  %8 = getelementptr inbounds nuw i8, ptr %0, i64 24
  tail call void @llvm.memset.p0.i64(ptr noundef nonnull align 8 dereferenceable(16) %8, i8 0, i64 16, i1 false)
  br label %9

9:                                                ; preds = %1, %3
  ret void
}